(lp0
V8
p1
aVAir
p2
aVApakah
p3
aVApril
p4
aVCGK
p5
aVHalo
p6
aVLion
p7
aVMaaf
p8
aVMakassar
p9
aVSaya
p10
aVSokusix
p11
aVSriwijaya
p12
aVSy
p13
aVThia
p14
aVTiket
p15
aVYogyakarta
p16
aVarena
p17
aVbatik
p18
aVbelakangan
p19
aVbeli
p20
aVbgmn
p21
aVbiasanya
p22
aVbisa
p23
aVbooking
p24
aVcitilink
p25
aVdengan
p26
aVdgn
p27
aVdi
p28
aVdiganti
p29
aVdr
p30
aVhari
p31
aVharu
p32
aVini
p33
aVjadi
p34
aVjadwal
p35
aVjam
p36
aVke
p37
aVkok
p38
aVmau
p39
aVpagi
p40
aVpenerbangan
p41
aVpesawat
p42
aVpswt
p43
aVreschedule
p44
aVrubah
p45
aVsama
p46
aVsampe
p47
aVsaya
p48
aVsdh
p49
aVsudah
p50
aVtanggal
p51
aVtanya
p52
aVtidak
p53
aVtiket
p54
aVtsb
p55
aVya
p56
aVyg
p57
a.